target datalayout = "e-m:e-p270:32:32-p271:32:32-p272:64:64-i64:64-i128:128-f80:128-n8:16:32:64-S128"
target triple = "x86_64-pc-linux-gnu"

%"class.Luau::CodeGen::X64::AssemblyBuilderX64" = type <{ %"class.std::vector", %"class.std::vector", %"class.std::__cxx11::basic_string", i8, [3 x i8], i32, i32, [4 x i8], %"class.std::vector.3", %"class.std::vector.8", %"class.Luau::DenseHashMap", %"class.Luau::DenseHashMap.13", i8, [7 x i8], i64, ptr, ptr, i32, [4 x i8] }>
%"class.std::vector" = type { %"struct.std::_Vector_base" }
%"struct.std::_Vector_base" = type { %"struct.std::_Vector_base<unsigned char, std::allocator<unsigned char>>::_Vector_impl" }
%"struct.std::_Vector_base<unsigned char, std::allocator<unsigned char>>::_Vector_impl" = type { %"struct.std::_Vector_base<unsigned char, std::allocator<unsigned char>>::_Vector_impl_data" }
%"struct.std::_Vector_base<unsigned char, std::allocator<unsigned char>>::_Vector_impl_data" = type { ptr, ptr, ptr }
%"class.std::__cxx11::basic_string" = type { %"struct.std::__cxx11::basic_string<char>::_Alloc_hider", i64, %union.anon }
%"struct.std::__cxx11::basic_string<char>::_Alloc_hider" = type { ptr }
%union.anon = type { i64, [8 x i8] }
%"class.std::vector.3" = type { %"struct.std::_Vector_base.4" }
%"struct.std::_Vector_base.4" = type { %"struct.std::_Vector_base<Luau::CodeGen::Label, std::allocator<Luau::CodeGen::Label>>::_Vector_impl" }
%"struct.std::_Vector_base<Luau::CodeGen::Label, std::allocator<Luau::CodeGen::Label>>::_Vector_impl" = type { %"struct.std::_Vector_base<Luau::CodeGen::Label, std::allocator<Luau::CodeGen::Label>>::_Vector_impl_data" }
%"struct.std::_Vector_base<Luau::CodeGen::Label, std::allocator<Luau::CodeGen::Label>>::_Vector_impl_data" = type { ptr, ptr, ptr }
%"class.std::vector.8" = type { %"struct.std::_Vector_base.9" }
%"struct.std::_Vector_base.9" = type { %"struct.std::_Vector_base<unsigned int, std::allocator<unsigned int>>::_Vector_impl" }
%"struct.std::_Vector_base<unsigned int, std::allocator<unsigned int>>::_Vector_impl" = type { %"struct.std::_Vector_base<unsigned int, std::allocator<unsigned int>>::_Vector_impl_data" }
%"struct.std::_Vector_base<unsigned int, std::allocator<unsigned int>>::_Vector_impl_data" = type { ptr, ptr, ptr }
%"class.Luau::DenseHashMap" = type { %"class.Luau::detail::DenseHashTable" }
%"class.Luau::detail::DenseHashTable" = type <{ ptr, i64, i64, i32, [4 x i8] }>
%"class.Luau::DenseHashMap.13" = type { %"class.Luau::detail::DenseHashTable.14" }
%"class.Luau::detail::DenseHashTable.14" = type <{ ptr, i64, i64, i64, [8 x i8] }>

; Function Attrs: mustprogress nounwind uwtable
define dso_local void @_ZN4Luau7CodeGen3X6418AssemblyBuilderX645placeEh(ptr noundef nonnull align 8 dereferenceable(252) %0, i8 noundef zeroext %1) #1 align 2 {
  %3 = alloca ptr, align 8
  %4 = alloca i8, align 1
  store ptr %0, ptr %3, align 8, !tbaa !4
  store i8 %1, ptr %4, align 1, !tbaa !79
  %5 = load ptr, ptr %3, align 8
  %6 = load i8, ptr %4, align 1, !tbaa !79
  %7 = getelementptr inbounds nuw %"class.Luau::CodeGen::X64::AssemblyBuilderX64", ptr %5, i32 0, i32 15
  %8 = load ptr, ptr %7, align 8, !tbaa !52
  %9 = getelementptr inbounds nuw i8, ptr %8, i32 1
  store ptr %9, ptr %7, align 8, !tbaa !52
  store i8 %6, ptr %8, align 1, !tbaa !79
  ret void
}

; Function Attrs: mustprogress uwtable
define dso_local void @_ZN4Luau7CodeGen3X6418AssemblyBuilderX649placeImm8Ei(ptr noundef nonnull align 8 dereferenceable(252) %0, i32 noundef %1) #0 align 2 {
  %3 = alloca ptr, align 8
  %4 = alloca i32, align 4
  %5 = alloca i8, align 1
  store ptr %0, ptr %3, align 8, !tbaa !4
  store i32 %1, ptr %4, align 4, !tbaa !48
  %6 = load ptr, ptr %3, align 8
  call void @llvm.lifetime.start.p0(i64 1, ptr %5) #17
  %7 = load i32, ptr %4, align 4, !tbaa !48
  %8 = trunc i32 %7 to i8
  store i8 %8, ptr %5, align 1, !tbaa !79
  %9 = load i8, ptr %5, align 1, !tbaa !79
  call void @_ZN4Luau7CodeGen3X6418AssemblyBuilderX645placeEh(ptr noundef nonnull align 8 dereferenceable(252) %6, i8 noundef zeroext %9)
  call void @llvm.lifetime.end.p0(i64 1, ptr %5) #17
  ret void
}